; Function Attrs: inlinehint mustprogress nounwind optsize uwtable
define internal noundef ptr @"_ZZN8nanobind6detail11func_createILb1ELb1ERZL27nanobind_init_test_enum_extRNS_7module_EE3$_1iJR11ClassicEnumEJLm0EEJNS_9is_methodENS_9is_getterENS_9rv_policyEEEEP7_objectOT1_PFT2_DpT3_ESt16integer_sequenceImJXspT4_EEEDpRKT5_ENUlPvPSC_PhSA_PNS0_12cleanup_listEE_8__invokeESQ_SR_SS_SA_SU_"(ptr readnone captures(none) %0, ptr noundef readonly captures(none) %1, ptr noundef readonly captures(none) %2, i32 %3, ptr readnone captures(none) %4) #9 align 2 personality ptr @__gxx_personality_v0 {
  %6 = alloca i64, align 8
  %7 = load ptr, ptr %1, align 8, !tbaa !78
  %8 = load i8, ptr %2, align 1, !tbaa !54
  call void @llvm.lifetime.start.p0(i64 8, ptr nonnull %6) #13
  %9 = call noundef zeroext i1 @_ZN8nanobind6detail16enum_from_pythonEPKSt9type_infoP7_objectPlh(ptr noundef nonnull @_ZTI11ClassicEnum, ptr noundef %7, ptr noundef nonnull %6, i8 noundef zeroext %8) #14
  %10 = load i64, ptr %6, align 8, !tbaa !81
  call void @llvm.lifetime.end.p0(i64 8, ptr nonnull %6) #13
  br i1 %9, label %11, label %"_ZZN8nanobind6detail11func_createILb1ELb1ERZL27nanobind_init_test_enum_extRNS_7module_EE3$_1iJR11ClassicEnumEJLm0EEJNS_9is_methodENS_9is_getterENS_9rv_policyEEEEP7_objectOT1_PFT2_DpT3_ESt16integer_sequenceImJXspT4_EEEDpRKT5_ENKUlPvPSC_PhSA_PNS0_12cleanup_listEE_clESQ_SR_SS_SA_SU_.exit"

11:                                               ; preds = %5
  %sext = shl i64 %10, 32
  %12 = ashr exact i64 %sext, 32
  %13 = invoke ptr @PyLong_FromLong(i64 noundef %12) #12
          to label %"_ZZN8nanobind6detail11func_createILb1ELb1ERZL27nanobind_init_test_enum_extRNS_7module_EE3$_1iJR11ClassicEnumEJLm0EEJNS_9is_methodENS_9is_getterENS_9rv_policyEEEEP7_objectOT1_PFT2_DpT3_ESt16integer_sequenceImJXspT4_EEEDpRKT5_ENKUlPvPSC_PhSA_PNS0_12cleanup_listEE_clESQ_SR_SS_SA_SU_.exit" unwind label %14

14:                                               ; preds = %11
  %15 = landingpad { ptr, i32 }
          catch ptr null
  %16 = extractvalue { ptr, i32 } %15, 0
  call void @__clang_call_terminate(ptr %16) #16
  unreachable

"_ZZN8nanobind6detail11func_createILb1ELb1ERZL27nanobind_init_test_enum_extRNS_7module_EE3$_1iJR11ClassicEnumEJLm0EEJNS_9is_methodENS_9is_getterENS_9rv_policyEEEEP7_objectOT1_PFT2_DpT3_ESt16integer_sequenceImJXspT4_EEEDpRKT5_ENKUlPvPSC_PhSA_PNS0_12cleanup_listEE_clESQ_SR_SS_SA_SU_.exit": ; preds = %11, %5
  %.0.i = phi ptr [ inttoptr (i64 1 to ptr), %5 ], [ %13, %11 ]
  ret ptr %.0.i
}